target datalayout = "e-m:e-p270:32:32-p271:32:32-p272:64:64-i64:64-i128:128-f80:128-n8:16:32:64-S128"
target triple = "x86_64-pc-linux-gnu"

%struct.t_psdata = type { ptr, %"class.std::vector", float, i32 }
%"class.std::vector" = type { %"struct.std::_Vector_base" }
%"struct.std::_Vector_base" = type { %"struct.std::_Vector_base<t_rgb, std::allocator<t_rgb>>::_Vector_impl" }
%"struct.std::_Vector_base<t_rgb, std::allocator<t_rgb>>::_Vector_impl" = type { %"struct.std::_Vector_base<t_rgb, std::allocator<t_rgb>>::_Vector_impl_data" }
%"struct.std::_Vector_base<t_rgb, std::allocator<t_rgb>>::_Vector_impl_data" = type { ptr, ptr, ptr }

@.str.26 = private unnamed_addr constant [4 x i8] c"C%d\00", align 1
@.str.30 = private unnamed_addr constant [4 x i8] c"%s\0A\00", align 1

; Function Attrs: mustprogress nounwind uwtable
define internal void @_ZL11ps_selcolorP8t_psdataPc(ptr noundef %0, ptr noundef %1) #3 {
  %3 = alloca ptr, align 8
  %4 = alloca ptr, align 8
  store ptr %0, ptr %3, align 8, !tbaa !26
  store ptr %1, ptr %4, align 8, !tbaa !8
  %5 = load ptr, ptr %3, align 8, !tbaa !26
  %6 = getelementptr inbounds nuw %struct.t_psdata, ptr %5, i32 0, i32 0
  %7 = load ptr, ptr %6, align 8, !tbaa !17
  %8 = load ptr, ptr %4, align 8, !tbaa !8
  %9 = call i32 (ptr, ptr, ...) @fprintf(ptr noundef %7, ptr noundef @.str.30, ptr noundef %8) #14
  ret void
}

; Function Attrs: mustprogress uwtable
define void @_Z8ps_colorP8t_psdatafff(ptr noundef %0, float noundef %1, float noundef %2, float noundef %3) #0 {
  %5 = alloca ptr, align 8
  %6 = alloca float, align 4
  %7 = alloca float, align 4
  %8 = alloca float, align 4
  %9 = alloca [12 x i8], align 1
  %10 = alloca i32, align 4
  store ptr %0, ptr %5, align 8, !tbaa !26
  store float %1, ptr %6, align 4, !tbaa !15
  store float %2, ptr %7, align 4, !tbaa !15
  store float %3, ptr %8, align 4, !tbaa !15
  call void @llvm.lifetime.start.p0(i64 12, ptr %9) #14
  call void @llvm.lifetime.start.p0(i64 4, ptr %10) #14
  %11 = load ptr, ptr %5, align 8, !tbaa !26
  %12 = load float, ptr %6, align 4, !tbaa !15
  %13 = load float, ptr %7, align 4, !tbaa !15
  %14 = load float, ptr %8, align 4, !tbaa !15
  %15 = call noundef i64 @_ZL10search_colP8t_psdatafff(ptr noundef %11, float noundef %12, float noundef %13, float noundef %14)
  %16 = trunc i64 %15 to i32
  store i32 %16, ptr %10, align 4, !tbaa !69
  %17 = getelementptr inbounds [12 x i8], ptr %9, i64 0, i64 0
  %18 = load i32, ptr %10, align 4, !tbaa !69
  %19 = call i32 (ptr, ptr, ...) @sprintf(ptr noundef %17, ptr noundef @.str.26, i32 noundef %18) #14
  %20 = load ptr, ptr %5, align 8, !tbaa !26
  %21 = getelementptr inbounds [12 x i8], ptr %9, i64 0, i64 0
  call void @_ZL11ps_selcolorP8t_psdataPc(ptr noundef %20, ptr noundef %21)
  call void @llvm.lifetime.end.p0(i64 4, ptr %10) #14
  call void @llvm.lifetime.end.p0(i64 12, ptr %9) #14
  ret void
}