; Function Attrs: mustprogress uwtable
define void @_Z8ps_colorP8t_psdatafff(ptr noundef captures(none) %0, float noundef %1, float noundef %2, float noundef %3) local_unnamed_addr #3 {
  %5 = alloca [12 x i8], align 1
  call void @llvm.lifetime.start.p0(i64 12, ptr nonnull %5) #18
  %6 = tail call fastcc noundef i64 @_ZL10search_colP8t_psdatafff(ptr noundef %0, float noundef %1, float noundef %2, float noundef %3)
  %7 = trunc i64 %6 to i32
  %8 = call i32 (ptr, ptr, ...) @sprintf(ptr noundef nonnull dereferenceable(1) %5, ptr noundef nonnull dereferenceable(1) @.str.26, i32 noundef %7) #18
  %.val = load ptr, ptr %0, align 8, !tbaa !9
  %9 = call i32 (ptr, ptr, ...) @fprintf(ptr noundef %.val, ptr noundef nonnull @.str.30, ptr noundef nonnull %5) #18
  call void @llvm.lifetime.end.p0(i64 12, ptr nonnull %5) #18
  ret void
}